; Function Attrs: nounwind uwtable
define internal range(i32 -1, 1) i32 @OnUpdateMailLog(ptr noundef %0, ptr noundef %1, ptr noundef %2, ptr noundef %3, ptr noundef %4, i32 noundef %5) #2 {
  %7 = icmp eq i32 %5, 16
  %8 = icmp eq i32 %5, 32
  %or.cond = or i1 %7, %8
  %9 = icmp ne ptr %1, null
  %or.cond3 = and i1 %9, %or.cond
  %10 = load ptr, ptr getelementptr inbounds nuw (i8, ptr @core_globals, i64 88), align 8
  %11 = icmp ne ptr %10, null
  %or.cond5 = select i1 %or.cond3, i1 %11, i1 false
  br i1 %or.cond5, label %12, label %15

12:                                               ; preds = %6
  %13 = getelementptr inbounds nuw i8, ptr %1, i64 24
  %14 = tail call i32 @php_check_open_basedir(ptr noundef nonnull %13) #28
  %.not = icmp eq i32 %14, 0
  br i1 %.not, label %15, label %17

15:                                               ; preds = %12, %6
  %16 = tail call i32 @OnUpdateString(ptr noundef %0, ptr noundef %1, ptr noundef %2, ptr noundef %3, ptr noundef %4, i32 noundef %5) #28
  br label %17

17:                                               ; preds = %12, %15
  %.0 = phi i32 [ 0, %15 ], [ -1, %12 ]
  ret i32 %.0
}